target datalayout = "e-m:e-p270:32:32-p271:32:32-p272:64:64-i64:64-i128:128-f80:128-n8:16:32:64-S128"
target triple = "x86_64-pc-linux-gnu"

%struct._zend_executor_globals = type { %struct._zval_struct, %struct._zval_struct, [32 x ptr], ptr, ptr, %struct._zend_array, %struct._zend_array, ptr, i32, i32, ptr, ptr, ptr, ptr, ptr, ptr, i64, ptr, ptr, i32, i32, i64, i32, i32, i32, i8, i8, %struct.zend_atomic_bool_s, %struct.zend_atomic_bool_s, ptr, i64, ptr, ptr, %struct._zend_array, %struct._zend_array, i32, i8, %struct._zval_struct, %struct._zval_struct, %struct._zend_stack, %struct._zend_stack, %struct._zend_stack, ptr, i32, i32, i64, ptr, ptr, ptr, %struct._zend_objects_store, ptr, ptr, ptr, [3 x %struct._zend_op], ptr, i8, i8, i64, i32, i32, ptr, [16 x %struct._HashTableIterator], ptr, %union._zend_function, %struct._zend_op, %struct._zend_array, i64, %struct.zend_get_gc_buffer, ptr, ptr, ptr, i64, i8, i32, ptr, ptr, i64, %struct._zend_call_stack, i64, i64, [6 x ptr] }
%struct.zend_atomic_bool_s = type { i8 }
%struct._zval_struct = type { %union._zend_value, %union.anon, %union.anon.2 }
%union._zend_value = type { i64 }
%union.anon = type { i32 }
%union.anon.2 = type { i32 }
%struct._zend_stack = type { i32, i32, i32, ptr }
%struct._zend_objects_store = type { ptr, i32, i32, i32 }
%struct._HashTableIterator = type { ptr, i32, i32 }
%union._zend_function = type { %struct._zend_op_array }
%struct._zend_op_array = type { i8, [3 x i8], i32, ptr, ptr, ptr, i32, i32, ptr, ptr, ptr, ptr, i32, i32, i32, i32, ptr, ptr, ptr, ptr, ptr, i32, i32, ptr, ptr, ptr, i32, i32, i32, i32, ptr, ptr, [6 x ptr] }
%struct._zend_op = type { ptr, %union._znode_op, %union._znode_op, %union._znode_op, i32, i32, i8, i8, i8, i8 }
%union._znode_op = type { i32 }
%struct._zend_array = type { %struct._zend_refcounted_h, %union.anon.4, i32, %union.anon.6, i32, i32, i32, i32, i64, ptr }
%struct._zend_refcounted_h = type { i32, %union.anon.3 }
%union.anon.3 = type { i32 }
%union.anon.4 = type { i32 }
%union.anon.6 = type { ptr }
%struct.zend_get_gc_buffer = type { ptr, ptr, ptr }
%struct._zend_call_stack = type { ptr, i64 }
%struct._zend_execute_data = type { ptr, ptr, ptr, ptr, %struct._zval_struct, ptr, ptr, ptr, ptr }
%struct._spl_fixedarray_object = type { %struct._spl_fixedarray, ptr, %struct._zend_object }
%struct._spl_fixedarray = type { i64, ptr, i64 }
%struct._zend_object = type { %struct._zend_refcounted_h, i32, ptr, ptr, ptr, [1 x %struct._zval_struct] }

@executor_globals = external global %struct._zend_executor_globals, align 8
@.str.7 = private unnamed_addr constant [2 x i8] c"z\00", align 1

; Function Attrs: nounwind uwtable
define internal zeroext i1 @spl_fixedarray_object_has_dimension_helper(ptr noundef %0, ptr noundef %1, i1 noundef zeroext %2) #0 {
  %4 = alloca ptr, align 8
  %5 = alloca i1, align 1
  %6 = alloca ptr, align 8
  %7 = alloca ptr, align 8
  %8 = alloca i8, align 1
  %9 = alloca i64, align 8
  store ptr %0, ptr %6, align 8
  store ptr %1, ptr %7, align 8
  %10 = zext i1 %2 to i8
  store i8 %10, ptr %8, align 1
  %11 = load ptr, ptr %7, align 8
  %12 = call i64 @spl_offset_convert_to_long(ptr noundef %11)
  store i64 %12, ptr %9, align 8
  %13 = load ptr, ptr getelementptr inbounds (%struct._zend_executor_globals, ptr @executor_globals, i32 0, i32 50), align 8
  %14 = icmp ne ptr %13, null
  br i1 %14, label %15, label %16

15:                                               ; preds = %3
  store i1 false, ptr %5, align 1
  br label %51

16:                                               ; preds = %3
  %17 = load i64, ptr %9, align 8
  %18 = icmp slt i64 %17, 0
  br i1 %18, label %26, label %19

19:                                               ; preds = %16
  %20 = load i64, ptr %9, align 8
  %21 = load ptr, ptr %6, align 8
  %22 = getelementptr inbounds %struct._spl_fixedarray_object, ptr %21, i32 0, i32 0
  %23 = getelementptr inbounds %struct._spl_fixedarray, ptr %22, i32 0, i32 0
  %24 = load i64, ptr %23, align 8
  %25 = icmp sge i64 %20, %24
  br i1 %25, label %26, label %27

26:                                               ; preds = %19, %16
  store i1 false, ptr %5, align 1
  br label %51

27:                                               ; preds = %19
  %28 = load i8, ptr %8, align 1
  %29 = trunc i8 %28 to i1
  br i1 %29, label %30, label %39

30:                                               ; preds = %27
  %31 = load ptr, ptr %6, align 8
  %32 = getelementptr inbounds %struct._spl_fixedarray_object, ptr %31, i32 0, i32 0
  %33 = getelementptr inbounds %struct._spl_fixedarray, ptr %32, i32 0, i32 1
  %34 = load ptr, ptr %33, align 8
  %35 = load i64, ptr %9, align 8
  %36 = getelementptr inbounds %struct._zval_struct, ptr %34, i64 %35
  %37 = call i32 @zend_is_true(ptr noundef %36)
  %38 = icmp ne i32 %37, 0
  store i1 %38, ptr %5, align 1
  br label %51

39:                                               ; preds = %27
  %40 = load ptr, ptr %6, align 8
  %41 = getelementptr inbounds %struct._spl_fixedarray_object, ptr %40, i32 0, i32 0
  %42 = getelementptr inbounds %struct._spl_fixedarray, ptr %41, i32 0, i32 1
  %43 = load ptr, ptr %42, align 8
  %44 = load i64, ptr %9, align 8
  %45 = getelementptr inbounds %struct._zval_struct, ptr %43, i64 %44
  store ptr %45, ptr %4, align 8
  %46 = load ptr, ptr %4, align 8
  %47 = getelementptr inbounds %struct._zval_struct, ptr %46, i32 0, i32 1
  %48 = load i8, ptr %47, align 8
  %49 = zext i8 %48 to i32
  %50 = icmp ne i32 %49, 1
  store i1 %50, ptr %5, align 1
  br label %51

51:                                               ; preds = %39, %30, %26, %15
  %52 = load i1, ptr %5, align 1
  ret i1 %52
}

; Function Attrs: nounwind uwtable
define internal ptr @spl_fixed_array_from_obj(ptr noundef %0) #0 {
  %2 = alloca ptr, align 8
  store ptr %0, ptr %2, align 8
  %3 = load ptr, ptr %2, align 8
  %4 = getelementptr inbounds i8, ptr %3, i64 -32
  ret ptr %4
}

; Function Attrs: nounwind uwtable
define hidden void @zim_SplFixedArray_offsetExists(ptr noundef %0, ptr noundef %1) #0 {
  %3 = alloca ptr, align 8
  %4 = alloca ptr, align 8
  %5 = alloca ptr, align 8
  %6 = alloca ptr, align 8
  store ptr %0, ptr %3, align 8
  store ptr %1, ptr %4, align 8
  %7 = load ptr, ptr %3, align 8
  %8 = getelementptr inbounds %struct._zend_execute_data, ptr %7, i32 0, i32 4
  %9 = getelementptr inbounds %struct._zval_struct, ptr %8, i32 0, i32 2
  %10 = load i32, ptr %9, align 4
  %11 = call i32 (i32, ptr, ...) @zend_parse_parameters(i32 noundef %10, ptr noundef @.str.7, ptr noundef %5)
  %12 = icmp eq i32 %11, -1
  br i1 %12, label %13, label %18

13:                                               ; preds = %2
  br label %14

14:                                               ; preds = %13
  %15 = load ptr, ptr getelementptr inbounds (%struct._zend_executor_globals, ptr @executor_globals, i32 0, i32 50), align 8
  %16 = icmp ne ptr %15, null
  call void @llvm.assume(i1 %16)
  br label %33

17:                                               ; No predecessors!
  br label %18

18:                                               ; preds = %17, %2
  %19 = load ptr, ptr %3, align 8
  %20 = getelementptr inbounds %struct._zend_execute_data, ptr %19, i32 0, i32 4
  %21 = getelementptr inbounds %struct._zval_struct, ptr %20, i32 0, i32 0
  %22 = load ptr, ptr %21, align 8
  %23 = call ptr @spl_fixed_array_from_obj(ptr noundef %22)
  store ptr %23, ptr %6, align 8
  br label %24

24:                                               ; preds = %18
  br label %25

25:                                               ; preds = %24
  %26 = load ptr, ptr %6, align 8
  %27 = load ptr, ptr %5, align 8
  %28 = call zeroext i1 @spl_fixedarray_object_has_dimension_helper(ptr noundef %26, ptr noundef %27, i1 noundef zeroext false)
  %29 = select i1 %28, i32 3, i32 2
  %30 = load ptr, ptr %4, align 8
  %31 = getelementptr inbounds %struct._zval_struct, ptr %30, i32 0, i32 1
  store i32 %29, ptr %31, align 8
  br label %32

32:                                               ; preds = %25
  br label %33

33:                                               ; preds = %32, %14
  ret void
}