; Function Attrs: nounwind uwtable
define hidden void @zim_SplFixedArray_offsetExists(ptr nocapture noundef readonly %0, ptr nocapture noundef writeonly %1) #0 {
  %3 = alloca ptr, align 8
  %4 = getelementptr inbounds i8, ptr %0, i64 44
  %5 = load i32, ptr %4, align 4
  %6 = call i32 (i32, ptr, ...) @zend_parse_parameters(i32 noundef %5, ptr noundef nonnull @.str.7, ptr noundef nonnull %3) #12
  %7 = icmp eq i32 %6, -1
  br i1 %7, label %8, label %11

8:                                                ; preds = %2
  %9 = load ptr, ptr getelementptr inbounds (%struct._zend_executor_globals, ptr @executor_globals, i64 0, i32 50), align 8
  %10 = icmp ne ptr %9, null
  call void @llvm.assume(i1 %10)
  br label %27

11:                                               ; preds = %2
  %12 = getelementptr inbounds i8, ptr %0, i64 32
  %13 = load ptr, ptr %12, align 8
  %14 = load ptr, ptr %3, align 8
  %15 = call fastcc i64 @spl_offset_convert_to_long(ptr noundef %14)
  %16 = load ptr, ptr getelementptr inbounds (%struct._zend_executor_globals, ptr @executor_globals, i64 0, i32 50), align 8
  %.not.i = icmp ne ptr %16, null
  %17 = icmp slt i64 %15, 0
  %or.cond.i = select i1 %.not.i, i1 true, i1 %17
  br i1 %or.cond.i, label %spl_fixedarray_object_has_dimension_helper.exit.thread, label %18

18:                                               ; preds = %11
  %19 = getelementptr inbounds i8, ptr %13, i64 -32
  %20 = load i64, ptr %19, align 8
  %.not11.i = icmp slt i64 %15, %20
  br i1 %.not11.i, label %spl_fixedarray_object_has_dimension_helper.exit, label %spl_fixedarray_object_has_dimension_helper.exit.thread

spl_fixedarray_object_has_dimension_helper.exit:  ; preds = %18
  %21 = getelementptr inbounds i8, ptr %13, i64 -24
  %22 = load ptr, ptr %21, align 8
  %23 = getelementptr inbounds %struct._zval_struct, ptr %22, i64 %15, i32 1
  %24 = load i8, ptr %23, align 8
  %.fr = freeze i8 %24
  %.not = icmp eq i8 %.fr, 1
  %spec.select = select i1 %.not, i32 2, i32 3
  br label %spl_fixedarray_object_has_dimension_helper.exit.thread

spl_fixedarray_object_has_dimension_helper.exit.thread: ; preds = %spl_fixedarray_object_has_dimension_helper.exit, %18, %11
  %25 = phi i32 [ 2, %11 ], [ 2, %18 ], [ %spec.select, %spl_fixedarray_object_has_dimension_helper.exit ]
  %26 = getelementptr inbounds i8, ptr %1, i64 8
  store i32 %25, ptr %26, align 8
  br label %27

27:                                               ; preds = %spl_fixedarray_object_has_dimension_helper.exit.thread, %8
  ret void
}